target datalayout = "e-m:e-p270:32:32-p271:32:32-p272:64:64-i64:64-i128:128-f80:128-n8:16:32:64-S128"
target triple = "x86_64-pc-linux-gnu"

%class.btMultiBodySliderConstraint = type { %class.btMultiBodyConstraint, ptr, ptr, %class.btVector3, %class.btVector3, %class.btMatrix3x3, %class.btMatrix3x3, %class.btVector3 }
%class.btMultiBodyConstraint = type { ptr, ptr, ptr, i32, i32, i32, i32, i32, i32, i32, i8, i32, float, %class.btAlignedObjectArray }
%class.btAlignedObjectArray = type <{ [4 x i8], i32, i32, [4 x i8], ptr, i8, [7 x i8] }>
%class.btMatrix3x3 = type { [3 x %class.btVector3] }
%class.btVector3 = type { [4 x float] }
%struct.btMultibodyLink = type { float, %class.btVector3, i32, %class.btQuaternion, %class.btVector3, %class.btVector3, %struct.btSpatialMotionVector, %struct.btSpatialMotionVector, [6 x %struct.btSpatialMotionVector], i32, i32, %class.btQuaternion, %class.btVector3, %class.btQuaternion, %class.btVector3, %class.btVector3, %class.btVector3, %class.btVector3, %class.btVector3, [7 x float], [7 x float], [6 x float], ptr, i32, i32, i32, i32, ptr, %class.btTransform, ptr, ptr, ptr, float, float, float, float, float, float }
%struct.btSpatialMotionVector = type { %class.btVector3, %class.btVector3 }
%class.btQuaternion = type { %class.btQuadWord }
%class.btQuadWord = type { [4 x float] }
%class.btTransform = type { %class.btMatrix3x3, %class.btVector3 }
%class.btCollisionObject = type <{ ptr, %class.btTransform, %class.btTransform, %class.btVector3, %class.btVector3, %class.btVector3, i32, float, ptr, ptr, ptr, ptr, i32, i32, i32, i32, i32, float, float, float, float, float, float, float, i32, [4 x i8], ptr, i32, i32, i32, float, float, float, i32, [4 x i8], %class.btAlignedObjectArray.0, i32, %class.btVector3, [4 x i8] }>
%class.btAlignedObjectArray.0 = type <{ [4 x i8], i32, i32, [4 x i8], ptr, i8, [7 x i8] }>
%class.btMultiBody = type { ptr, ptr, ptr, %class.btVector3, %class.btVector3, %class.btQuaternion, %class.btQuaternion, float, %class.btVector3, %class.btVector3, %class.btVector3, %class.btVector3, %class.btVector3, [4 x i8], %class.btAlignedObjectArray.4, %class.btAlignedObjectArray, %class.btAlignedObjectArray, %class.btAlignedObjectArray, %class.btAlignedObjectArray.6, %class.btAlignedObjectArray.8, %class.btMatrix3x3, %class.btMatrix3x3, %class.btMatrix3x3, %class.btMatrix3x3, i8, i8, i8, i8, i8, float, float, float, ptr, i32, i32, i32, float, float, i8, float, float, i8, i8, i32, i32, i8, i8, i8, i8 }
%class.btAlignedObjectArray.4 = type <{ [4 x i8], i32, i32, [4 x i8], ptr, i8, [7 x i8] }>
%class.btAlignedObjectArray.6 = type <{ [4 x i8], i32, i32, [4 x i8], ptr, i8, [7 x i8] }>
%class.btAlignedObjectArray.8 = type <{ [4 x i8], i32, i32, [4 x i8], ptr, i8, [7 x i8] }>

; Function Attrs: inlinehint mustprogress nounwind uwtable
define linkonce_odr dso_local noundef nonnull align 8 dereferenceable(688) ptr @_ZN20btAlignedObjectArrayI15btMultibodyLinkEixEi(ptr noundef nonnull align 8 dereferenceable(25) %0, i32 noundef %1) #8 comdat align 2 {
  %3 = alloca ptr, align 8
  %4 = alloca i32, align 4
  store ptr %0, ptr %3, align 8, !tbaa !111
  store i32 %1, ptr %4, align 4, !tbaa !9
  %5 = load ptr, ptr %3, align 8
  %6 = getelementptr inbounds nuw %class.btAlignedObjectArray.4, ptr %5, i32 0, i32 4
  %7 = load ptr, ptr %6, align 8, !tbaa !113
  %8 = load i32, ptr %4, align 4, !tbaa !9
  %9 = sext i32 %8 to i64
  %10 = getelementptr inbounds %struct.btMultibodyLink, ptr %7, i64 %9
  ret ptr %10
}

; Function Attrs: mustprogress uwtable
define linkonce_odr dso_local noundef nonnull align 8 dereferenceable(688) ptr @_ZN11btMultiBody7getLinkEi(ptr noundef nonnull align 8 dereferenceable(640) %0, i32 noundef %1) #2 comdat align 2 {
  %3 = alloca ptr, align 8
  %4 = alloca i32, align 4
  store ptr %0, ptr %3, align 8, !tbaa !14
  store i32 %1, ptr %4, align 4, !tbaa !9
  %5 = load ptr, ptr %3, align 8
  %6 = getelementptr inbounds nuw %class.btMultiBody, ptr %5, i32 0, i32 14
  %7 = load i32, ptr %4, align 4, !tbaa !9
  %8 = call noundef nonnull align 8 dereferenceable(688) ptr @_ZN20btAlignedObjectArrayI15btMultibodyLinkEixEi(ptr noundef nonnull align 8 dereferenceable(25) %6, i32 noundef %7)
  ret ptr %8
}

; Function Attrs: mustprogress nounwind uwtable
define linkonce_odr dso_local noundef ptr @_ZN11btMultiBody15getBaseColliderEv(ptr noundef nonnull align 8 dereferenceable(640) %0) #1 comdat align 2 {
  %2 = alloca ptr, align 8
  store ptr %0, ptr %2, align 8, !tbaa !14
  %3 = load ptr, ptr %2, align 8
  %4 = getelementptr inbounds nuw %class.btMultiBody, ptr %3, i32 0, i32 1
  %5 = load ptr, ptr %4, align 8, !tbaa !68
  ret ptr %5
}

; Function Attrs: inlinehint mustprogress nounwind uwtable
define linkonce_odr dso_local noundef i32 @_ZNK17btCollisionObject12getIslandTagEv(ptr noundef nonnull align 8 dereferenceable(372) %0) #8 comdat align 2 {
  %2 = alloca ptr, align 8
  store ptr %0, ptr %2, align 8, !tbaa !59
  %3 = load ptr, ptr %2, align 8
  %4 = getelementptr inbounds nuw %class.btCollisionObject, ptr %3, i32 0, i32 13
  %5 = load i32, ptr %4, align 4, !tbaa !61
  ret i32 %5
}

; Function Attrs: mustprogress uwtable
define dso_local noundef i32 @_ZNK27btMultiBodySliderConstraint12getIslandIdBEv(ptr noundef nonnull align 8 dereferenceable(256) %0) unnamed_addr #2 align 2 {
  %2 = alloca i32, align 4
  %3 = alloca ptr, align 8
  %4 = alloca ptr, align 8
  %5 = alloca i32, align 4
  store ptr %0, ptr %3, align 8, !tbaa !12
  %6 = load ptr, ptr %3, align 8
  %7 = getelementptr inbounds nuw %class.btMultiBodySliderConstraint, ptr %6, i32 0, i32 2
  %8 = load ptr, ptr %7, align 8, !tbaa !34
  %9 = icmp ne ptr %8, null
  br i1 %9, label %10, label %14

10:                                               ; preds = %1
  %11 = getelementptr inbounds nuw %class.btMultiBodySliderConstraint, ptr %6, i32 0, i32 2
  %12 = load ptr, ptr %11, align 8, !tbaa !34
  %13 = call noundef i32 @_ZNK17btCollisionObject12getIslandTagEv(ptr noundef nonnull align 8 dereferenceable(372) %12)
  store i32 %13, ptr %2, align 4
  br label %56

14:                                               ; preds = %1
  %15 = getelementptr inbounds nuw %class.btMultiBodyConstraint, ptr %6, i32 0, i32 2
  %16 = load ptr, ptr %15, align 8, !tbaa !77
  %17 = icmp ne ptr %16, null
  br i1 %17, label %18, label %55

18:                                               ; preds = %14
  %19 = getelementptr inbounds nuw %class.btMultiBodyConstraint, ptr %6, i32 0, i32 4
  %20 = load i32, ptr %19, align 4, !tbaa !78
  %21 = icmp slt i32 %20, 0
  br i1 %21, label %22, label %35

22:                                               ; preds = %18
  call void @llvm.lifetime.start.p0(i64 8, ptr %4) #13
  %23 = getelementptr inbounds nuw %class.btMultiBodyConstraint, ptr %6, i32 0, i32 2
  %24 = load ptr, ptr %23, align 8, !tbaa !77
  %25 = call noundef ptr @_ZN11btMultiBody15getBaseColliderEv(ptr noundef nonnull align 8 dereferenceable(640) %24)
  store ptr %25, ptr %4, align 8, !tbaa !48
  %26 = load ptr, ptr %4, align 8, !tbaa !48
  %27 = icmp ne ptr %26, null
  br i1 %27, label %28, label %31

28:                                               ; preds = %22
  %29 = load ptr, ptr %4, align 8, !tbaa !48
  %30 = call noundef i32 @_ZNK17btCollisionObject12getIslandTagEv(ptr noundef nonnull align 8 dereferenceable(372) %29)
  store i32 %30, ptr %2, align 4
  store i32 1, ptr %5, align 4
  br label %32

31:                                               ; preds = %22
  store i32 0, ptr %5, align 4
  br label %32

32:                                               ; preds = %31, %28
  call void @llvm.lifetime.end.p0(i64 8, ptr %4) #13
  %33 = load i32, ptr %5, align 4
  switch i32 %33, label %58 [
    i32 0, label %34
    i32 1, label %56
  ]

34:                                               ; preds = %32
  br label %54

35:                                               ; preds = %18
  %36 = getelementptr inbounds nuw %class.btMultiBodyConstraint, ptr %6, i32 0, i32 2
  %37 = load ptr, ptr %36, align 8, !tbaa !77
  %38 = getelementptr inbounds nuw %class.btMultiBodyConstraint, ptr %6, i32 0, i32 4
  %39 = load i32, ptr %38, align 4, !tbaa !78
  %40 = call noundef nonnull align 8 dereferenceable(688) ptr @_ZN11btMultiBody7getLinkEi(ptr noundef nonnull align 8 dereferenceable(640) %37, i32 noundef %39)
  %41 = getelementptr inbounds nuw %struct.btMultibodyLink, ptr %40, i32 0, i32 22
  %42 = load ptr, ptr %41, align 8, !tbaa !50
  %43 = icmp ne ptr %42, null
  br i1 %43, label %44, label %53

44:                                               ; preds = %35
  %45 = getelementptr inbounds nuw %class.btMultiBodyConstraint, ptr %6, i32 0, i32 2
  %46 = load ptr, ptr %45, align 8, !tbaa !77
  %47 = getelementptr inbounds nuw %class.btMultiBodyConstraint, ptr %6, i32 0, i32 4
  %48 = load i32, ptr %47, align 4, !tbaa !78
  %49 = call noundef nonnull align 8 dereferenceable(688) ptr @_ZN11btMultiBody7getLinkEi(ptr noundef nonnull align 8 dereferenceable(640) %46, i32 noundef %48)
  %50 = getelementptr inbounds nuw %struct.btMultibodyLink, ptr %49, i32 0, i32 22
  %51 = load ptr, ptr %50, align 8, !tbaa !50
  %52 = call noundef i32 @_ZNK17btCollisionObject12getIslandTagEv(ptr noundef nonnull align 8 dereferenceable(372) %51)
  store i32 %52, ptr %2, align 4
  br label %56

53:                                               ; preds = %35
  br label %54

54:                                               ; preds = %53, %34
  br label %55

55:                                               ; preds = %54, %14
  store i32 -1, ptr %2, align 4
  br label %56

56:                                               ; preds = %55, %44, %32, %10
  %57 = load i32, ptr %2, align 4
  ret i32 %57

58:                                               ; preds = %32
  unreachable
}